; Function Attrs: nounwind uwtable
define nonnull ptr @l_String_reduceBNe___boxed(ptr noundef %0, ptr noundef %1, ptr noundef %2, ptr noundef %3, ptr noundef %4, ptr noundef %5, ptr noundef %6, ptr noundef %7, ptr noundef %8) #0 {
  %10 = load ptr, ptr @l_String_reduceBNe___closed__2, align 8, !tbaa !9
  %11 = tail call zeroext i8 @l_Lean_Expr_isAppOfArity(ptr noundef %0, ptr noundef %10, ptr noundef nonnull inttoptr (i64 9 to ptr)) #4
  %12 = icmp eq i8 %11, 0
  br i1 %12, label %13, label %21

13:                                               ; preds = %9
  %14 = load ptr, ptr @l_String_reduceAppend___lambda__1___closed__1, align 8, !tbaa !9
  tail call void @lean_inc_heartbeat() #4
  %15 = tail call noalias ptr @mi_malloc_small(i64 noundef 24) #4
  %16 = icmp eq ptr %15, null
  br i1 %16, label %17, label %lean_alloc_ctor.exit.i

17:                                               ; preds = %13
  tail call void @lean_internal_panic_out_of_memory() #5
  unreachable

lean_alloc_ctor.exit.i:                           ; preds = %13
  %18 = getelementptr inbounds nuw i8, ptr %15, i64 4
  store i32 1, ptr %15, align 4, !tbaa !4
  store i32 131096, ptr %18, align 4
  %19 = getelementptr inbounds nuw i8, ptr %15, i64 8
  store ptr %14, ptr %19, align 8, !tbaa !9
  %20 = getelementptr inbounds nuw i8, ptr %15, i64 16
  store ptr %8, ptr %20, align 8, !tbaa !9
  br label %l_String_reduceBNe.exit

21:                                               ; preds = %9
  %22 = tail call ptr @l_String_reduceBNe___lambda__1(ptr noundef %0, ptr nonnull poison, ptr readnone poison, ptr readnone poison, ptr readnone poison, ptr readnone poison, ptr readnone poison, ptr readnone poison, ptr readnone poison, ptr noundef %8)
  br label %l_String_reduceBNe.exit

l_String_reduceBNe.exit:                          ; preds = %lean_alloc_ctor.exit.i, %21
  %.0.i = phi ptr [ %15, %lean_alloc_ctor.exit.i ], [ %22, %21 ]
  %23 = ptrtoint ptr %7 to i64
  %24 = and i64 %23, 1
  %.not = icmp eq i64 %24, 0
  br i1 %.not, label %25, label %lean_dec.exit24

25:                                               ; preds = %l_String_reduceBNe.exit
  %26 = load i32, ptr %7, align 4, !tbaa !4
  %27 = icmp sgt i32 %26, 1
  br i1 %27, label %28, label %30, !prof !11

28:                                               ; preds = %25
  %29 = add nsw i32 %26, -1
  store i32 %29, ptr %7, align 4, !tbaa !4
  br label %lean_dec.exit24

30:                                               ; preds = %25
  %.not.i = icmp eq i32 %26, 0
  br i1 %.not.i, label %lean_dec.exit24, label %31

31:                                               ; preds = %30
  tail call void @lean_dec_ref_cold(ptr noundef nonnull %7) #4
  br label %lean_dec.exit24

lean_dec.exit24:                                  ; preds = %31, %30, %28, %l_String_reduceBNe.exit
  %32 = ptrtoint ptr %6 to i64
  %33 = and i64 %32, 1
  %.not39 = icmp eq i64 %33, 0
  br i1 %.not39, label %34, label %lean_dec.exit23

34:                                               ; preds = %lean_dec.exit24
  %35 = load i32, ptr %6, align 4, !tbaa !4
  %36 = icmp sgt i32 %35, 1
  br i1 %36, label %37, label %39, !prof !11

37:                                               ; preds = %34
  %38 = add nsw i32 %35, -1
  store i32 %38, ptr %6, align 4, !tbaa !4
  br label %lean_dec.exit23

39:                                               ; preds = %34
  %.not.i25 = icmp eq i32 %35, 0
  br i1 %.not.i25, label %lean_dec.exit23, label %40

40:                                               ; preds = %39
  tail call void @lean_dec_ref_cold(ptr noundef nonnull %6) #4
  br label %lean_dec.exit23

lean_dec.exit23:                                  ; preds = %40, %39, %37, %lean_dec.exit24
  %41 = ptrtoint ptr %5 to i64
  %42 = and i64 %41, 1
  %.not40 = icmp eq i64 %42, 0
  br i1 %.not40, label %43, label %lean_dec.exit22

43:                                               ; preds = %lean_dec.exit23
  %44 = load i32, ptr %5, align 4, !tbaa !4
  %45 = icmp sgt i32 %44, 1
  br i1 %45, label %46, label %48, !prof !11

46:                                               ; preds = %43
  %47 = add nsw i32 %44, -1
  store i32 %47, ptr %5, align 4, !tbaa !4
  br label %lean_dec.exit22

48:                                               ; preds = %43
  %.not.i27 = icmp eq i32 %44, 0
  br i1 %.not.i27, label %lean_dec.exit22, label %49

49:                                               ; preds = %48
  tail call void @lean_dec_ref_cold(ptr noundef nonnull %5) #4
  br label %lean_dec.exit22

lean_dec.exit22:                                  ; preds = %49, %48, %46, %lean_dec.exit23
  %50 = ptrtoint ptr %4 to i64
  %51 = and i64 %50, 1
  %.not41 = icmp eq i64 %51, 0
  br i1 %.not41, label %52, label %lean_dec.exit21

52:                                               ; preds = %lean_dec.exit22
  %53 = load i32, ptr %4, align 4, !tbaa !4
  %54 = icmp sgt i32 %53, 1
  br i1 %54, label %55, label %57, !prof !11

55:                                               ; preds = %52
  %56 = add nsw i32 %53, -1
  store i32 %56, ptr %4, align 4, !tbaa !4
  br label %lean_dec.exit21

57:                                               ; preds = %52
  %.not.i29 = icmp eq i32 %53, 0
  br i1 %.not.i29, label %lean_dec.exit21, label %58

58:                                               ; preds = %57
  tail call void @lean_dec_ref_cold(ptr noundef nonnull %4) #4
  br label %lean_dec.exit21

lean_dec.exit21:                                  ; preds = %58, %57, %55, %lean_dec.exit22
  %59 = ptrtoint ptr %3 to i64
  %60 = and i64 %59, 1
  %.not42 = icmp eq i64 %60, 0
  br i1 %.not42, label %61, label %lean_dec.exit20

61:                                               ; preds = %lean_dec.exit21
  %62 = load i32, ptr %3, align 4, !tbaa !4
  %63 = icmp sgt i32 %62, 1
  br i1 %63, label %64, label %66, !prof !11

64:                                               ; preds = %61
  %65 = add nsw i32 %62, -1
  store i32 %65, ptr %3, align 4, !tbaa !4
  br label %lean_dec.exit20

66:                                               ; preds = %61
  %.not.i31 = icmp eq i32 %62, 0
  br i1 %.not.i31, label %lean_dec.exit20, label %67

67:                                               ; preds = %66
  tail call void @lean_dec_ref_cold(ptr noundef nonnull %3) #4
  br label %lean_dec.exit20

lean_dec.exit20:                                  ; preds = %67, %66, %64, %lean_dec.exit21
  %68 = ptrtoint ptr %2 to i64
  %69 = and i64 %68, 1
  %.not43 = icmp eq i64 %69, 0
  br i1 %.not43, label %70, label %lean_dec.exit19

70:                                               ; preds = %lean_dec.exit20
  %71 = load i32, ptr %2, align 4, !tbaa !4
  %72 = icmp sgt i32 %71, 1
  br i1 %72, label %73, label %75, !prof !11

73:                                               ; preds = %70
  %74 = add nsw i32 %71, -1
  store i32 %74, ptr %2, align 4, !tbaa !4
  br label %lean_dec.exit19

75:                                               ; preds = %70
  %.not.i33 = icmp eq i32 %71, 0
  br i1 %.not.i33, label %lean_dec.exit19, label %76

76:                                               ; preds = %75
  tail call void @lean_dec_ref_cold(ptr noundef nonnull %2) #4
  br label %lean_dec.exit19

lean_dec.exit19:                                  ; preds = %76, %75, %73, %lean_dec.exit20
  %77 = ptrtoint ptr %1 to i64
  %78 = and i64 %77, 1
  %.not44 = icmp eq i64 %78, 0
  br i1 %.not44, label %79, label %lean_dec.exit18

79:                                               ; preds = %lean_dec.exit19
  %80 = load i32, ptr %1, align 4, !tbaa !4
  %81 = icmp sgt i32 %80, 1
  br i1 %81, label %82, label %84, !prof !11

82:                                               ; preds = %79
  %83 = add nsw i32 %80, -1
  store i32 %83, ptr %1, align 4, !tbaa !4
  br label %lean_dec.exit18

84:                                               ; preds = %79
  %.not.i35 = icmp eq i32 %80, 0
  br i1 %.not.i35, label %lean_dec.exit18, label %85

85:                                               ; preds = %84
  tail call void @lean_dec_ref_cold(ptr noundef nonnull %1) #4
  br label %lean_dec.exit18

lean_dec.exit18:                                  ; preds = %85, %84, %82, %lean_dec.exit19
  %86 = ptrtoint ptr %0 to i64
  %87 = and i64 %86, 1
  %.not45 = icmp eq i64 %87, 0
  br i1 %.not45, label %88, label %lean_dec.exit

88:                                               ; preds = %lean_dec.exit18
  %89 = load i32, ptr %0, align 4, !tbaa !4
  %90 = icmp sgt i32 %89, 1
  br i1 %90, label %91, label %93, !prof !11

91:                                               ; preds = %88
  %92 = add nsw i32 %89, -1
  store i32 %92, ptr %0, align 4, !tbaa !4
  br label %lean_dec.exit

93:                                               ; preds = %88
  %.not.i37 = icmp eq i32 %89, 0
  br i1 %.not.i37, label %lean_dec.exit, label %94

94:                                               ; preds = %93
  tail call void @lean_dec_ref_cold(ptr noundef nonnull %0) #4
  br label %lean_dec.exit

lean_dec.exit:                                    ; preds = %94, %93, %91, %lean_dec.exit18
  ret ptr %.0.i
}